target datalayout = "e-m:e-p270:32:32-p271:32:32-p272:64:64-i64:64-i128:128-f80:128-n8:16:32:64-S128"
target triple = "x86_64-pc-linux-gnu"

%struct.PLpgSQL_execstate = type { ptr, ptr, ptr, i64, i8, i32, i32, i8, i8, i8, i8, ptr, ptr, ptr, ptr, ptr, ptr, ptr, i32, i32, ptr, ptr, ptr, ptr, ptr, ptr, ptr, ptr, ptr, ptr, i64, ptr, ptr, ptr, ptr, ptr }
%struct.PLpgSQL_datum = type { i32, i32 }
%struct.PLpgSQL_variable = type { i32, i32, ptr, i32, i8, i8, ptr }
%struct.PLpgSQL_recfield = type { i32, i32, ptr, i32, i32, i64, %struct.ExpandedRecordFieldInfo }
%struct.ExpandedRecordFieldInfo = type { i32, i32, i32, i32 }

@.str.2 = private unnamed_addr constant [11 x i8] c"plpgsql-18\00", align 1
@.str.3 = private unnamed_addr constant [23 x i8] c"unrecognized dtype: %d\00", align 1
@.str.4 = private unnamed_addr constant [10 x i8] c"pl_exec.c\00", align 1
@.str.52 = private unnamed_addr constant [35 x i8] c"variable \22%s\22 is declared CONSTANT\00", align 1
@__func__.exec_check_assignable = private unnamed_addr constant [22 x i8] c"exec_check_assignable\00", align 1

; Function Attrs: nounwind uwtable
define internal void @exec_check_assignable(ptr noundef %0, i32 noundef %1) #0 {
  %3 = alloca ptr, align 8
  %4 = alloca i32, align 4
  %5 = alloca ptr, align 8
  store ptr %0, ptr %3, align 8
  store i32 %1, ptr %4, align 4
  call void @llvm.lifetime.start.p0(i64 8, ptr %5) #12
  %6 = load ptr, ptr %3, align 8
  %7 = getelementptr inbounds nuw %struct.PLpgSQL_execstate, ptr %6, i32 0, i32 20
  %8 = load ptr, ptr %7, align 8
  %9 = load i32, ptr %4, align 4
  %10 = sext i32 %9 to i64
  %11 = getelementptr inbounds ptr, ptr %8, i64 %10
  %12 = load ptr, ptr %11, align 8
  store ptr %12, ptr %5, align 8
  %13 = load ptr, ptr %5, align 8
  %14 = getelementptr inbounds nuw %struct.PLpgSQL_datum, ptr %13, i32 0, i32 0
  %15 = load i32, ptr %14, align 4
  switch i32 %15, label %42 [
    i32 0, label %16
    i32 4, label %16
    i32 2, label %16
    i32 1, label %56
    i32 3, label %37
  ]

16:                                               ; preds = %2, %2, %2
  %17 = load ptr, ptr %5, align 8
  %18 = getelementptr inbounds nuw %struct.PLpgSQL_variable, ptr %17, i32 0, i32 4
  %19 = load i8, ptr %18, align 4, !range !3, !noundef !4
  %20 = trunc i8 %19 to i1
  br i1 %20, label %21, label %36

21:                                               ; preds = %16
  br label %22

22:                                               ; preds = %21
  br i1 true, label %23, label %25

23:                                               ; preds = %22
  %24 = call zeroext i1 @errstart_cold(i32 noundef 21, ptr noundef @.str.2) #13
  br i1 %24, label %27, label %33

25:                                               ; preds = %22
  %26 = call zeroext i1 @errstart(i32 noundef 21, ptr noundef @.str.2)
  br i1 %26, label %27, label %33

27:                                               ; preds = %25, %23
  %28 = call i32 @errcode(i32 noundef 83886210)
  %29 = load ptr, ptr %5, align 8
  %30 = getelementptr inbounds nuw %struct.PLpgSQL_variable, ptr %29, i32 0, i32 2
  %31 = load ptr, ptr %30, align 8
  %32 = call i32 (ptr, ...) @errmsg(ptr noundef @.str.52, ptr noundef %31)
  call void @errfinish(ptr noundef @.str.4, i32 noundef 8582, ptr noundef @__func__.exec_check_assignable)
  br label %33

33:                                               ; preds = %27, %25, %23
  unreachable

34:                                               ; No predecessors!
  br label %35

35:                                               ; preds = %34
  br label %36

36:                                               ; preds = %35, %16
  br label %56

37:                                               ; preds = %2
  %38 = load ptr, ptr %3, align 8
  %39 = load ptr, ptr %5, align 8
  %40 = getelementptr inbounds nuw %struct.PLpgSQL_recfield, ptr %39, i32 0, i32 3
  %41 = load i32, ptr %40, align 8
  call void @exec_check_assignable(ptr noundef %38, i32 noundef %41)
  br label %56

42:                                               ; preds = %2
  br label %43

43:                                               ; preds = %42
  br i1 true, label %44, label %46

44:                                               ; preds = %43
  %45 = call zeroext i1 @errstart_cold(i32 noundef 21, ptr noundef @.str.2) #13
  br i1 %45, label %48, label %53

46:                                               ; preds = %43
  %47 = call zeroext i1 @errstart(i32 noundef 21, ptr noundef @.str.2)
  br i1 %47, label %48, label %53

48:                                               ; preds = %46, %44
  %49 = load ptr, ptr %5, align 8
  %50 = getelementptr inbounds nuw %struct.PLpgSQL_datum, ptr %49, i32 0, i32 0
  %51 = load i32, ptr %50, align 4
  %52 = call i32 (ptr, ...) @errmsg_internal(ptr noundef @.str.3, i32 noundef %51)
  call void @errfinish(ptr noundef @.str.4, i32 noundef 8593, ptr noundef @__func__.exec_check_assignable)
  br label %53

53:                                               ; preds = %48, %46, %44
  unreachable

54:                                               ; No predecessors!
  br label %55

55:                                               ; preds = %54
  br label %56

56:                                               ; preds = %55, %37, %2, %36
  call void @llvm.lifetime.end.p0(i64 8, ptr %5) #12
  ret void
}