; Function Attrs: nounwind uwtable
define internal fastcc void @exec_check_assignable(ptr noundef nonnull readonly captures(none) %0, i32 noundef %1) unnamed_addr #0 {
  %3 = getelementptr inbounds nuw i8, ptr %0, i64 112
  %4 = load ptr, ptr %3, align 8
  br label %tailrecurse

tailrecurse:                                      ; preds = %19, %2
  %.tr7 = phi i32 [ %1, %2 ], [ %21, %19 ]
  %5 = sext i32 %.tr7 to i64
  %6 = getelementptr inbounds ptr, ptr %4, i64 %5
  %7 = load ptr, ptr %6, align 8
  %8 = load i32, ptr %7, align 4
  switch i32 %8, label %22 [
    i32 0, label %9
    i32 4, label %9
    i32 2, label %9
    i32 1, label %.loopexit
    i32 3, label %19
  ]

9:                                                ; preds = %tailrecurse, %tailrecurse, %tailrecurse
  %10 = getelementptr inbounds nuw i8, ptr %7, i64 20
  %11 = load i8, ptr %10, align 4, !range !3, !noundef !4
  %12 = trunc nuw i8 %11 to i1
  br i1 %12, label %13, label %.loopexit

13:                                               ; preds = %9
  %14 = tail call zeroext i1 @errstart_cold(i32 noundef 21, ptr noundef nonnull @.str.2) #13
  tail call void @llvm.assume(i1 %14)
  %15 = tail call i32 @errcode(i32 noundef 83886210) #12
  %16 = getelementptr inbounds nuw i8, ptr %7, i64 8
  %17 = load ptr, ptr %16, align 8
  %18 = tail call i32 (ptr, ...) @errmsg(ptr noundef nonnull @.str.52, ptr noundef %17) #12
  tail call void @errfinish(ptr noundef nonnull @.str.4, i32 noundef 8582, ptr noundef nonnull @__func__.exec_check_assignable) #12
  unreachable

19:                                               ; preds = %tailrecurse
  %20 = getelementptr inbounds nuw i8, ptr %7, i64 16
  %21 = load i32, ptr %20, align 8
  br label %tailrecurse

22:                                               ; preds = %tailrecurse
  %23 = tail call zeroext i1 @errstart_cold(i32 noundef 21, ptr noundef nonnull @.str.2) #13
  tail call void @llvm.assume(i1 %23)
  %24 = load i32, ptr %7, align 4
  %25 = tail call i32 (ptr, ...) @errmsg_internal(ptr noundef nonnull @.str.3, i32 noundef %24) #12
  tail call void @errfinish(ptr noundef nonnull @.str.4, i32 noundef 8593, ptr noundef nonnull @__func__.exec_check_assignable) #12
  unreachable

.loopexit:                                        ; preds = %tailrecurse, %9
  ret void
}